;
; Definition file of asmjit.dll
; Automatic generated by gendef
; written by Kai Tietz 2008
;
LIBRARY "asmjit.dll"
EXPORTS
_Z8snprintfPcyPKcz
_ZN6asmjit9_abi_1_1110BaseRAPass10_asWorkRegEPNS0_7VirtRegEPPNS0_9RAWorkRegE
_ZN6asmjit9_abi_1_1110BaseRAPass11emitPreCallEPNS0_10InvokeNodeE
_ZN6asmjit9_abi_1_1110BaseRAPass12annotateCodeEv
_ZN6asmjit9_abi_1_1110BaseRAPass13_dumpBlockIdsERNS0_6StringERKNS0_10ZoneVectorIPNS0_7RABlockEEE
_ZN6asmjit9_abi_1_1110BaseRAPass13buildCFGViewsEv
_ZN6asmjit9_abi_1_1110BaseRAPass13buildLivenessEv
_ZN6asmjit9_abi_1_1110BaseRAPass13runOnFunctionEPNS0_4ZoneEPNS0_6LoggerEPNS0_8FuncNodeE
_ZN6asmjit9_abi_1_1110BaseRAPass14_dumpLiveSpansERNS0_6StringE
_ZN6asmjit9_abi_1_1110BaseRAPass15useTemporaryMemERNS0_7BaseMemEjj
_ZN6asmjit9_abi_1_1110BaseRAPass16_updateStackArgsEv
_ZN6asmjit9_abi_1_1110BaseRAPass16newPhysToWorkMapEv
_ZN6asmjit9_abi_1_1110BaseRAPass16newWorkToPhysMapEv
_ZN6asmjit9_abi_1_1110BaseRAPass16updateStackFrameEv
_ZN6asmjit9_abi_1_1110BaseRAPass17onPerformAllStepsEv
_ZN6asmjit9_abi_1_1110BaseRAPass17runLocalAllocatorEv
_ZN6asmjit9_abi_1_1110BaseRAPass18_dumpBlockLivenessERNS0_6StringEPKNS0_7RABlockE
_ZN6asmjit9_abi_1_1110BaseRAPass18blockEntryAssignedEPKNS0_12RAAssignment13PhysToWorkMapE
_ZN6asmjit9_abi_1_1110BaseRAPass18buildCFGDominatorsEv
_ZN6asmjit9_abi_1_1110BaseRAPass18insertPrologEpilogEv
_ZN6asmjit9_abi_1_1110BaseRAPass18runGlobalAllocatorEv
_ZN6asmjit9_abi_1_1110BaseRAPass19initGlobalLiveSpansEv
_ZN6asmjit9_abi_1_1110BaseRAPass19setSharedAssignmentEjRKNS0_12RAAssignmentE
_ZN6asmjit9_abi_1_1110BaseRAPass20_markStackArgsToKeepEv
_ZN6asmjit9_abi_1_1110BaseRAPass20newBlockOrExistingAtEPNS0_9LabelNodeEPPNS0_8BaseNodeE
_ZN6asmjit9_abi_1_1110BaseRAPass21initSharedAssignmentsERKNS0_10ZoneVectorIjEE
_ZN6asmjit9_abi_1_1110BaseRAPass21removeUnreachableCodeEv
_ZN6asmjit9_abi_1_1110BaseRAPass23findSuccessorStartingAtEPNS0_8BaseNodeE
_ZN6asmjit9_abi_1_1110BaseRAPass23setBlockEntryAssignmentEPNS0_7RABlockEPKS2_RKNS0_12RAAssignmentE
_ZN6asmjit9_abi_1_1110BaseRAPass24assignArgIndexToWorkRegsEv
_ZN6asmjit9_abi_1_1110BaseRAPass6onDoneEv
_ZN6asmjit9_abi_1_1110BaseRAPass6onInitEv
_ZN6asmjit9_abi_1_1110BaseRAPass7binPackENS0_8RegGroupE
_ZN6asmjit9_abi_1_1110BaseRAPass7rewriteEv
_ZN6asmjit9_abi_1_1110BaseRAPass8_rewriteEPNS0_8BaseNodeES3_
_ZN6asmjit9_abi_1_1110BaseRAPass8addBlockEPNS0_7RABlockE
_ZN6asmjit9_abi_1_1110BaseRAPass8buildCFGEv
_ZN6asmjit9_abi_1_1110BaseRAPass8emitJumpERKNS0_5LabelE
_ZN6asmjit9_abi_1_1110BaseRAPass8emitLoadEjj
_ZN6asmjit9_abi_1_1110BaseRAPass8emitMoveEjjj
_ZN6asmjit9_abi_1_1110BaseRAPass8emitSaveEjj
_ZN6asmjit9_abi_1_1110BaseRAPass8emitSwapEjjjj
_ZN6asmjit9_abi_1_1110BaseRAPass8isNextToEPNS0_8BaseNodeES3_
_ZN6asmjit9_abi_1_1110BaseRAPass8newBlockEPNS0_8BaseNodeE
_ZN6asmjit9_abi_1_1110BaseRAPassC1Ev
_ZN6asmjit9_abi_1_1110BaseRAPassC2Ev
_ZN6asmjit9_abi_1_1110BaseRAPassD0Ev
_ZN6asmjit9_abi_1_1110BaseRAPassD1Ev
_ZN6asmjit9_abi_1_1110BaseRAPassD2Ev
_ZN6asmjit9_abi_1_1110CodeHolder10growBufferEPNS0_10CodeBufferEy
_ZN6asmjit9_abi_1_1110CodeHolder10newSectionEPPNS0_7SectionEPKcyNS0_12SectionFlagsEji
_ZN6asmjit9_abi_1_1110CodeHolder12newLabelLinkEPNS0_10LabelEntryEjyxRKNS0_12OffsetFormatE
_ZN6asmjit9_abi_1_1110CodeHolder13labelIdByNameEPKcyj
_ZN6asmjit9_abi_1_1110CodeHolder13newLabelEntryEPPNS0_10LabelEntryE
_ZN6asmjit9_abi_1_1110CodeHolder13newRelocEntryEPPNS0_10RelocEntryENS0_9RelocTypeE
_ZN6asmjit9_abi_1_1110CodeHolder13reserveBufferEPNS0_10CodeBufferEy
_ZN6asmjit9_abi_1_1110CodeHolder14relocateToBaseEy
_ZN6asmjit9_abi_1_1110CodeHolder15copySectionDataEPvyjNS0_16CopySectionFlagsE
_ZN6asmjit9_abi_1_1110CodeHolder15setErrorHandlerEPNS0_12ErrorHandlerE
_ZN6asmjit9_abi_1_1110CodeHolder17copyFlattenedDataEPvyNS0_16CopySectionFlagsE
_ZN6asmjit9_abi_1_1110CodeHolder18newNamedLabelEntryEPPNS0_10LabelEntryEPKcyNS0_9LabelTypeEj
_ZN6asmjit9_abi_1_1110CodeHolder22resolveUnresolvedLinksEv
_ZN6asmjit9_abi_1_1110CodeHolder24addAddressToAddressTableEy
_ZN6asmjit9_abi_1_1110CodeHolder25ensureAddressTableSectionEv
_ZN6asmjit9_abi_1_1110CodeHolder4initERKNS0_11EnvironmentERKNS0_11CpuFeaturesEy
_ZN6asmjit9_abi_1_1110CodeHolder4initERKNS0_11EnvironmentEy
_ZN6asmjit9_abi_1_1110CodeHolder5resetENS0_11ResetPolicyE
_ZN6asmjit9_abi_1_1110CodeHolder6attachEPNS0_11BaseEmitterE
_ZN6asmjit9_abi_1_1110CodeHolder6detachEPNS0_11BaseEmitterE
_ZN6asmjit9_abi_1_1110CodeHolder7flattenEv
_ZN6asmjit9_abi_1_1110CodeHolder9bindLabelERKNS0_5LabelEjy
_ZN6asmjit9_abi_1_1110CodeHolder9setLoggerEPNS0_6LoggerE
_ZN6asmjit9_abi_1_1110CodeHolderC1EPKNS0_7Support9TemporaryE
_ZN6asmjit9_abi_1_1110CodeHolderC2EPKNS0_7Support9TemporaryE
_ZN6asmjit9_abi_1_1110CodeHolderD1Ev
_ZN6asmjit9_abi_1_1110CodeHolderD2Ev
_ZN6asmjit9_abi_1_1110DebugUtils11debugOutputEPKc
_ZN6asmjit9_abi_1_1110DebugUtils13errorAsStringEj
_ZN6asmjit9_abi_1_1110DebugUtils15assertionFailedEPKciS3_
_ZN6asmjit9_abi_1_1110FileLogger4_logEPKcy
_ZN6asmjit9_abi_1_1110FileLoggerC1EP6_iobuf
_ZN6asmjit9_abi_1_1110FileLoggerC2EP6_iobuf
_ZN6asmjit9_abi_1_1110FileLoggerD0Ev
_ZN6asmjit9_abi_1_1110FileLoggerD1Ev
_ZN6asmjit9_abi_1_1110FileLoggerD2Ev
_ZN6asmjit9_abi_1_1110FuncDetail4initERKNS0_13FuncSignatureERKNS0_11EnvironmentE
_ZN6asmjit9_abi_1_1110JitRuntime4_addEPPvPNS0_10CodeHolderE
_ZN6asmjit9_abi_1_1110JitRuntime8_releaseEPv
_ZN6asmjit9_abi_1_1110JitRuntimeC1EPKNS0_12JitAllocator12CreateParamsE
_ZN6asmjit9_abi_1_1110JitRuntimeC2EPKNS0_12JitAllocator12CreateParamsE
_ZN6asmjit9_abi_1_1110JitRuntimeD0Ev
_ZN6asmjit9_abi_1_1110JitRuntimeD1Ev
_ZN6asmjit9_abi_1_1110JitRuntimeD2Ev
_ZN6asmjit9_abi_1_1111BaseBuilder10deletePassEPNS0_4PassE
_ZN6asmjit9_abi_1_1111BaseBuilder10embedLabelERKNS0_5LabelEy
_ZN6asmjit9_abi_1_1111BaseBuilder10removeNodeEPNS0_8BaseNodeE
_ZN6asmjit9_abi_1_1111BaseBuilder11labelNodeOfEPPNS0_9LabelNodeEj
_ZN6asmjit9_abi_1_1111BaseBuilder11newInstNodeEPPNS0_8InstNodeEjNS0_11InstOptionsEj
_ZN6asmjit9_abi_1_1111BaseBuilder11removeNodesEPNS0_8BaseNodeES3_
_ZN6asmjit9_abi_1_1111BaseBuilder11serializeToEPNS0_11BaseEmitterE
_ZN6asmjit9_abi_1_1111BaseBuilder12newAlignNodeEPPNS0_9AlignNodeENS0_9AlignModeEj
_ZN6asmjit9_abi_1_1111BaseBuilder12newLabelNodeEPPNS0_9LabelNodeE
_ZN6asmjit9_abi_1_1111BaseBuilder13newNamedLabelEPKcyNS0_9LabelTypeEj
_ZN6asmjit9_abi_1_1111BaseBuilder13sectionNodeOfEPPNS0_11SectionNodeEj
_ZN6asmjit9_abi_1_1111BaseBuilder14embedConstPoolERKNS0_5LabelERKNS0_9ConstPoolE
_ZN6asmjit9_abi_1_1111BaseBuilder14embedDataArrayENS0_6TypeIdEPKvyy
_ZN6asmjit9_abi_1_1111BaseBuilder14newCommentNodeEPPNS0_11CommentNodeEPKcy
_ZN6asmjit9_abi_1_1111BaseBuilder15embedLabelDeltaERKNS0_5LabelES4_y
_ZN6asmjit9_abi_1_1111BaseBuilder16newConstPoolNodeEPPNS0_13ConstPoolNodeE
_ZN6asmjit9_abi_1_1111BaseBuilder16newEmbedDataNodeEPPNS0_13EmbedDataNodeENS0_6TypeIdEPKvyy
_ZN6asmjit9_abi_1_1111BaseBuilder17registerLabelNodeEPNS0_9LabelNodeE
_ZN6asmjit9_abi_1_1111BaseBuilder18updateSectionLinksEv
_ZN6asmjit9_abi_1_1111BaseBuilder4bindERKNS0_5LabelE
_ZN6asmjit9_abi_1_1111BaseBuilder5_emitEjRKNS0_8Operand_ES4_S4_PS3_
_ZN6asmjit9_abi_1_1111BaseBuilder5alignENS0_9AlignModeEj
_ZN6asmjit9_abi_1_1111BaseBuilder5embedEPKvy
_ZN6asmjit9_abi_1_1111BaseBuilder7addNodeEPNS0_8BaseNodeE
_ZN6asmjit9_abi_1_1111BaseBuilder7addPassEPNS0_4PassE
_ZN6asmjit9_abi_1_1111BaseBuilder7commentEPKcy
_ZN6asmjit9_abi_1_1111BaseBuilder7sectionEPNS0_7SectionE
_ZN6asmjit9_abi_1_1111BaseBuilder8addAfterEPNS0_8BaseNodeES3_
_ZN6asmjit9_abi_1_1111BaseBuilder8newLabelEv
_ZN6asmjit9_abi_1_1111BaseBuilder8onAttachEPNS0_10CodeHolderE
_ZN6asmjit9_abi_1_1111BaseBuilder8onDetachEPNS0_10CodeHolderE
_ZN6asmjit9_abi_1_1111BaseBuilder9addBeforeEPNS0_8BaseNodeES3_
_ZN6asmjit9_abi_1_1111BaseBuilder9runPassesEv
_ZN6asmjit9_abi_1_1111BaseBuilder9setCursorEPNS0_8BaseNodeE
_ZN6asmjit9_abi_1_1111BaseBuilderC1Ev
_ZN6asmjit9_abi_1_1111BaseBuilderC2Ev
_ZN6asmjit9_abi_1_1111BaseBuilderD0Ev
_ZN6asmjit9_abi_1_1111BaseBuilderD1Ev
_ZN6asmjit9_abi_1_1111BaseBuilderD2Ev
_ZN6asmjit9_abi_1_1111BaseEmitter10embedLabelERKNS0_5LabelEy
_ZN6asmjit9_abi_1_1111BaseEmitter10emitEpilogERKNS0_9FuncFrameE
_ZN6asmjit9_abi_1_1111BaseEmitter10emitPrologERKNS0_9FuncFrameE
_ZN6asmjit9_abi_1_1111BaseEmitter11labelByNameEPKcyj
_ZN6asmjit9_abi_1_1111BaseEmitter11reportErrorEjPKc
_ZN6asmjit9_abi_1_1111BaseEmitter12_emitOpArrayEjPKNS0_8Operand_Ey
_ZN6asmjit9_abi_1_1111BaseEmitter13newNamedLabelEPKcyNS0_9LabelTypeEj
_ZN6asmjit9_abi_1_1111BaseEmitter14embedDataArrayENS0_6TypeIdEPKvyy
_ZN6asmjit9_abi_1_1111BaseEmitter15embedLabelDeltaERKNS0_5LabelES4_y
_ZN6asmjit9_abi_1_1111BaseEmitter15setErrorHandlerEPNS0_12ErrorHandlerE
_ZN6asmjit9_abi_1_1111BaseEmitter17onSettingsUpdatedEv
_ZN6asmjit9_abi_1_1111BaseEmitter18emitArgsAssignmentERKNS0_9FuncFrameERKNS0_18FuncArgsAssignmentE
_ZN6asmjit9_abi_1_1111BaseEmitter20addDiagnosticOptionsENS0_17DiagnosticOptionsE
_ZN6asmjit9_abi_1_1111BaseEmitter22clearDiagnosticOptionsENS0_17DiagnosticOptionsE
_ZN6asmjit9_abi_1_1111BaseEmitter4bindERKNS0_5LabelE
_ZN6asmjit9_abi_1_1111BaseEmitter5_emitEjRKNS0_8Operand_ES4_S4_PS3_
_ZN6asmjit9_abi_1_1111BaseEmitter5alignENS0_9AlignModeEj
_ZN6asmjit9_abi_1_1111BaseEmitter5embedEPKvy
_ZN6asmjit9_abi_1_1111BaseEmitter6_emitIEj
_ZN6asmjit9_abi_1_1111BaseEmitter6_emitIEjRKNS0_8Operand_E
_ZN6asmjit9_abi_1_1111BaseEmitter6_emitIEjRKNS0_8Operand_ES4_
_ZN6asmjit9_abi_1_1111BaseEmitter6_emitIEjRKNS0_8Operand_ES4_S4_
_ZN6asmjit9_abi_1_1111BaseEmitter6_emitIEjRKNS0_8Operand_ES4_S4_S4_
_ZN6asmjit9_abi_1_1111BaseEmitter6_emitIEjRKNS0_8Operand_ES4_S4_S4_S4_
_ZN6asmjit9_abi_1_1111BaseEmitter6_emitIEjRKNS0_8Operand_ES4_S4_S4_S4_S4_
_ZN6asmjit9_abi_1_1111BaseEmitter7sectionEPNS0_7SectionE
_ZN6asmjit9_abi_1_1111BaseEmitter8commentfEPKcz
_ZN6asmjit9_abi_1_1111BaseEmitter8commentvEPKcPc
_ZN6asmjit9_abi_1_1111BaseEmitter8finalizeEv
_ZN6asmjit9_abi_1_1111BaseEmitter8newLabelEv
_ZN6asmjit9_abi_1_1111BaseEmitter8onAttachEPNS0_10CodeHolderE
_ZN6asmjit9_abi_1_1111BaseEmitter8onDetachEPNS0_10CodeHolderE
_ZN6asmjit9_abi_1_1111BaseEmitter9setLoggerEPNS0_6LoggerE
_ZN6asmjit9_abi_1_1111BaseEmitterC1ENS0_11EmitterTypeE
_ZN6asmjit9_abi_1_1111BaseEmitterC2ENS0_11EmitterTypeE
_ZN6asmjit9_abi_1_1111BaseEmitterD0Ev
_ZN6asmjit9_abi_1_1111BaseEmitterD1Ev
_ZN6asmjit9_abi_1_1111BaseEmitterD2Ev
_ZN6asmjit9_abi_1_1111_archTraitsE DATA
_ZN6asmjit9_abi_1_1112BaseCompiler10_newRegFmtEPNS0_7BaseRegENS0_6TypeIdEPKcz
_ZN6asmjit9_abi_1_1112BaseCompiler10_newRegFmtEPNS0_7BaseRegERKS2_PKcz
_ZN6asmjit9_abi_1_1112BaseCompiler10newVirtRegEPPNS0_7VirtRegENS0_6TypeIdENS0_16OperandSignatureEPKc
_ZN6asmjit9_abi_1_1112BaseCompiler11addFuncNodeEPPNS0_8FuncNodeERKNS0_13FuncSignatureE
_ZN6asmjit9_abi_1_1112BaseCompiler11newFuncNodeEPPNS0_8FuncNodeERKNS0_13FuncSignatureE
_ZN6asmjit9_abi_1_1112BaseCompiler11newJumpNodeEPPNS0_8JumpNodeEjNS0_11InstOptionsERKNS0_8Operand_EPNS0_14JumpAnnotationE
_ZN6asmjit9_abi_1_1112BaseCompiler12setStackSizeEjjj
_ZN6asmjit9_abi_1_1112BaseCompiler13addInvokeNodeEPPNS0_10InvokeNodeEjRKNS0_8Operand_ERKNS0_13FuncSignatureE
_ZN6asmjit9_abi_1_1112BaseCompiler13newInvokeNodeEPPNS0_10InvokeNodeEjRKNS0_8Operand_ERKNS0_13FuncSignatureE
_ZN6asmjit9_abi_1_1112BaseCompiler14addFuncRetNodeEPPNS0_11FuncRetNodeERKNS0_8Operand_ES7_
_ZN6asmjit9_abi_1_1112BaseCompiler14newFuncRetNodeEPPNS0_11FuncRetNodeERKNS0_8Operand_ES7_
_ZN6asmjit9_abi_1_1112BaseCompiler17emitAnnotatedJumpEjRKNS0_8Operand_EPNS0_14JumpAnnotationE
_ZN6asmjit9_abi_1_1112BaseCompiler17newJumpAnnotationEv
_ZN6asmjit9_abi_1_1112BaseCompiler6renameERKNS0_7BaseRegEPKcz
_ZN6asmjit9_abi_1_1112BaseCompiler7_newRegEPNS0_7BaseRegENS0_6TypeIdEPKc
_ZN6asmjit9_abi_1_1112BaseCompiler7_newRegEPNS0_7BaseRegERKS2_PKc
_ZN6asmjit9_abi_1_1112BaseCompiler7addFuncEPNS0_8FuncNodeE
_ZN6asmjit9_abi_1_1112BaseCompiler7endFuncEv
_ZN6asmjit9_abi_1_1112BaseCompiler8onAttachEPNS0_10CodeHolderE
_ZN6asmjit9_abi_1_1112BaseCompiler8onDetachEPNS0_10CodeHolderE
_ZN6asmjit9_abi_1_1112BaseCompiler9_newConstEPNS0_7BaseMemENS0_14ConstPoolScopeEPKvy
_ZN6asmjit9_abi_1_1112BaseCompiler9_newStackEPNS0_7BaseMemEjjPKc
_ZN6asmjit9_abi_1_1112BaseCompilerC1Ev
_ZN6asmjit9_abi_1_1112BaseCompilerC2Ev
_ZN6asmjit9_abi_1_1112BaseCompilerD0Ev
_ZN6asmjit9_abi_1_1112BaseCompilerD1Ev
_ZN6asmjit9_abi_1_1112BaseCompilerD2Ev
_ZN6asmjit9_abi_1_1112EmitterUtils13logLabelBoundEPNS0_13BaseAssemblerERKNS0_5LabelE
_ZN6asmjit9_abi_1_1112EmitterUtils19finishFormattedLineERNS0_6StringERKNS0_13FormatOptionsEPKhyyyPKc
_ZN6asmjit9_abi_1_1112EmitterUtils20logInstructionFailedEPNS0_11BaseEmitterEjjNS0_11InstOptionsERKNS0_8Operand_ES7_S7_PS6_
_ZN6asmjit9_abi_1_1112EmitterUtils21logInstructionEmittedEPNS0_13BaseAssemblerEjNS0_11InstOptionsERKNS0_8Operand_ES7_S7_PS6_jjPh
_ZN6asmjit9_abi_1_1112ErrorHandler11handleErrorEjPKcPNS0_11BaseEmitterE
_ZN6asmjit9_abi_1_1112ErrorHandlerC1Ev
_ZN6asmjit9_abi_1_1112ErrorHandlerC2Ev
_ZN6asmjit9_abi_1_1112ErrorHandlerD0Ev
_ZN6asmjit9_abi_1_1112ErrorHandlerD1Ev
_ZN6asmjit9_abi_1_1112ErrorHandlerD2Ev
_ZN6asmjit9_abi_1_1112JitAllocator11scopedWriteERNS1_14WriteScopeDataERNS1_4SpanEPDoFjS5_PvES6_
_ZN6asmjit9_abi_1_1112JitAllocator11scopedWriteERNS1_14WriteScopeDataERNS1_4SpanEyPKvy
_ZN6asmjit9_abi_1_1112JitAllocator13endWriteScopeERNS1_14WriteScopeDataE
_ZN6asmjit9_abi_1_1112JitAllocator15beginWriteScopeERNS1_14WriteScopeDataENS0_7VirtMem11CachePolicyE
_ZN6asmjit9_abi_1_1112JitAllocator15flushWriteScopeERNS1_14WriteScopeDataE
_ZN6asmjit9_abi_1_1112JitAllocator5allocERNS1_4SpanEy
_ZN6asmjit9_abi_1_1112JitAllocator5resetENS0_11ResetPolicyE
_ZN6asmjit9_abi_1_1112JitAllocator5writeERNS1_4SpanEPDoFjS3_PvES4_NS0_7VirtMem11CachePolicyE
_ZN6asmjit9_abi_1_1112JitAllocator5writeERNS1_4SpanEyPKvyNS0_7VirtMem11CachePolicyE
_ZN6asmjit9_abi_1_1112JitAllocator6shrinkERNS1_4SpanEy
_ZN6asmjit9_abi_1_1112JitAllocator7releaseEPv
_ZN6asmjit9_abi_1_1112JitAllocatorC1EPKNS1_12CreateParamsE
_ZN6asmjit9_abi_1_1112JitAllocatorC2EPKNS1_12CreateParamsE
_ZN6asmjit9_abi_1_1112JitAllocatorD1Ev
_ZN6asmjit9_abi_1_1112JitAllocatorD2Ev
_ZN6asmjit9_abi_1_1112StringLogger4_logEPKcy
_ZN6asmjit9_abi_1_1112StringLoggerC1Ev
_ZN6asmjit9_abi_1_1112StringLoggerC2Ev
_ZN6asmjit9_abi_1_1112StringLoggerD0Ev
_ZN6asmjit9_abi_1_1112StringLoggerD1Ev
_ZN6asmjit9_abi_1_1112StringLoggerD2Ev
_ZN6asmjit9_abi_1_1112ZoneHashBase7_insertEPNS0_13ZoneAllocatorEPNS0_12ZoneHashNodeE
_ZN6asmjit9_abi_1_1112ZoneHashBase7_rehashEPNS0_13ZoneAllocatorEj
_ZN6asmjit9_abi_1_1112ZoneHashBase7_removeEPNS0_13ZoneAllocatorEPNS0_12ZoneHashNodeE
_ZN6asmjit9_abi_1_1113BaseAssembler10embedLabelERKNS0_5LabelEy
_ZN6asmjit9_abi_1_1113BaseAssembler13newNamedLabelEPKcyNS0_9LabelTypeEj
_ZN6asmjit9_abi_1_1113BaseAssembler14embedConstPoolERKNS0_5LabelERKNS0_9ConstPoolE
_ZN6asmjit9_abi_1_1113BaseAssembler14embedDataArrayENS0_6TypeIdEPKvyy
_ZN6asmjit9_abi_1_1113BaseAssembler15embedLabelDeltaERKNS0_5LabelES4_y
_ZN6asmjit9_abi_1_1113BaseAssembler4bindERKNS0_5LabelE
_ZN6asmjit9_abi_1_1113BaseAssembler5embedEPKvy
_ZN6asmjit9_abi_1_1113BaseAssembler7commentEPKcy
_ZN6asmjit9_abi_1_1113BaseAssembler7sectionEPNS0_7SectionE
_ZN6asmjit9_abi_1_1113BaseAssembler8newLabelEv
_ZN6asmjit9_abi_1_1113BaseAssembler8onAttachEPNS0_10CodeHolderE
_ZN6asmjit9_abi_1_1113BaseAssembler8onDetachEPNS0_10CodeHolderE
_ZN6asmjit9_abi_1_1113BaseAssembler9setOffsetEy
_ZN6asmjit9_abi_1_1113BaseAssemblerC1Ev
_ZN6asmjit9_abi_1_1113BaseAssemblerC2Ev
_ZN6asmjit9_abi_1_1113BaseAssemblerD0Ev
_ZN6asmjit9_abi_1_1113BaseAssemblerD1Ev
_ZN6asmjit9_abi_1_1113BaseAssemblerD2Ev
_ZN6asmjit9_abi_1_1113RACFGBuilderTINS0_3x8612RACFGBuilderEE3runEv
_ZN6asmjit9_abi_1_1113RAConstraints4initENS0_4ArchE
_ZN6asmjit9_abi_1_1113RAInstBuilder3addEPNS0_9RAWorkRegENS0_11RATiedFlagsEjjjjjjjj
_ZN6asmjit9_abi_1_1113ZoneAllocator12_allocZeroedEyRy
_ZN6asmjit9_abi_1_1113ZoneAllocator15_releaseDynamicEPvy
_ZN6asmjit9_abi_1_1113ZoneAllocator5resetEPNS0_4ZoneE
_ZN6asmjit9_abi_1_1113ZoneAllocator6_allocEyRy
_ZN6asmjit9_abi_1_1113ZoneBitVector7_appendEPNS0_13ZoneAllocatorEb
_ZN6asmjit9_abi_1_1113ZoneBitVector7_resizeEPNS0_13ZoneAllocatorEjjb
_ZN6asmjit9_abi_1_1113ZoneBitVector8copyFromEPNS0_13ZoneAllocatorERKS1_
_ZN6asmjit9_abi_1_1113ZoneStackBase13_cleanupBlockEjy
_ZN6asmjit9_abi_1_1113ZoneStackBase13_prepareBlockEjy
_ZN6asmjit9_abi_1_1113ZoneStackBase5_initEPNS0_13ZoneAllocatorEy
_ZN6asmjit9_abi_1_1114BaseEmitHelper11emitArgMoveERKNS0_7BaseRegENS0_6TypeIdERKNS0_8Operand_ES5_PKc
_ZN6asmjit9_abi_1_1114BaseEmitHelper11emitRegMoveERKNS0_8Operand_ES4_NS0_6TypeIdEPKc
_ZN6asmjit9_abi_1_1114BaseEmitHelper11emitRegSwapERKNS0_7BaseRegES4_PKc
_ZN6asmjit9_abi_1_1114BaseEmitHelper18emitArgsAssignmentERKNS0_9FuncFrameERKNS0_18FuncArgsAssignmentE
_ZN6asmjit9_abi_1_1114ZoneVectorBase5_growEPNS0_13ZoneAllocatorEjj
_ZN6asmjit9_abi_1_1114ZoneVectorBase7_resizeEPNS0_13ZoneAllocatorEjj
_ZN6asmjit9_abi_1_1114ZoneVectorBase8_releaseEPNS0_13ZoneAllocatorEj
_ZN6asmjit9_abi_1_1114ZoneVectorBase8_reserveEPNS0_13ZoneAllocatorEjj
_ZN6asmjit9_abi_1_1115CodeWriterUtils11writeOffsetEPvxRKNS0_12OffsetFormatE
_ZN6asmjit9_abi_1_1115CodeWriterUtils14encodeOffset32EPjxRKNS0_12OffsetFormatE
_ZN6asmjit9_abi_1_1115CodeWriterUtils14encodeOffset64EPyxRKNS0_12OffsetFormatE
_ZN6asmjit9_abi_1_1115FuncArgsContext12initWorkDataERKNS0_9FuncFrameERKNS0_18FuncArgsAssignmentEPKNS0_13RAConstraintsE
_ZN6asmjit9_abi_1_1115FuncArgsContext15markScratchRegsERNS0_9FuncFrameE
_ZN6asmjit9_abi_1_1115FuncArgsContext16markDstRegsDirtyERNS0_9FuncFrameE
_ZN6asmjit9_abi_1_1115FuncArgsContext16markStackArgsRegERNS0_9FuncFrameE
_ZN6asmjit9_abi_1_1115FuncArgsContextC1Ev
_ZN6asmjit9_abi_1_1115FuncArgsContextC2Ev
_ZN6asmjit9_abi_1_1116RALocalAllocator11allocBranchEPNS0_8InstNodeEPNS0_7RABlockES5_
_ZN6asmjit9_abi_1_1116RALocalAllocator14allocJumpTableEPNS0_8InstNodeERKNS0_10ZoneVectorIPNS0_7RABlockEEES6_
_ZN6asmjit9_abi_1_1116RALocalAllocator17replaceAssignmentEPKNS0_12RAAssignment13PhysToWorkMapE
_ZN6asmjit9_abi_1_1116RALocalAllocator18switchToAssignmentEPNS0_12RAAssignment13PhysToWorkMapERKNS0_13ZoneBitVectorEbb
_ZN6asmjit9_abi_1_1116RALocalAllocator20spillAfterAllocationEPNS0_8InstNodeE
_ZN6asmjit9_abi_1_1116RALocalAllocator21makeInitialAssignmentEv
_ZN6asmjit9_abi_1_1116RALocalAllocator29spillScratchGpRegsBeforeEntryEj
_ZN6asmjit9_abi_1_1116RALocalAllocator4initEv
_ZN6asmjit9_abi_1_1116RALocalAllocator9allocInstEPNS0_8InstNodeE
_ZN6asmjit9_abi_1_1116RAStackAllocator17adjustSlotOffsetsEi
_ZN6asmjit9_abi_1_1116RAStackAllocator19calculateStackFrameEv
_ZN6asmjit9_abi_1_1116RAStackAllocator7newSlotEjjjj
_ZN6asmjit9_abi_1_1119GlobalConstPoolPass3runEPNS0_4ZoneEPNS0_6LoggerE
_ZN6asmjit9_abi_1_1119GlobalConstPoolPassD0Ev
_ZN6asmjit9_abi_1_1119GlobalConstPoolPassD1Ev
_ZN6asmjit9_abi_1_1121PostponedErrorHandler11handleErrorEjPKcPNS0_11BaseEmitterE
_ZN6asmjit9_abi_1_1121PostponedErrorHandlerD0Ev
_ZN6asmjit9_abi_1_1121PostponedErrorHandlerD1Ev
_ZN6asmjit9_abi_1_113x8610EmitHelper10emitEpilogERKNS0_9FuncFrameE
_ZN6asmjit9_abi_1_113x8610EmitHelper10emitPrologERKNS0_9FuncFrameE
_ZN6asmjit9_abi_1_113x8610EmitHelper11emitArgMoveERKNS0_7BaseRegENS0_6TypeIdERKNS0_8Operand_ES6_PKc
_ZN6asmjit9_abi_1_113x8610EmitHelper11emitRegMoveERKNS0_8Operand_ES5_NS0_6TypeIdEPKc
_ZN6asmjit9_abi_1_113x8610EmitHelper11emitRegSwapERKNS0_7BaseRegES5_PKc
_ZN6asmjit9_abi_1_113x8612FuncInternal12initCallConvERNS0_8CallConvENS0_10CallConvIdERKNS0_11EnvironmentE
_ZN6asmjit9_abi_1_113x8612FuncInternal12unpackValuesERNS0_10FuncDetailERNS0_13FuncValuePackE
_ZN6asmjit9_abi_1_113x8612FuncInternal14initFuncDetailERNS0_10FuncDetailERKNS0_13FuncSignatureEj
_ZN6asmjit9_abi_1_113x8612InstInternal11queryRWInfoENS0_4ArchERKNS0_8BaseInstEPKNS0_8Operand_EyPNS0_10InstRWInfoE
_ZN6asmjit9_abi_1_113x8612InstInternal13queryFeaturesENS0_4ArchERKNS0_8BaseInstEPKNS0_8Operand_EyPNS0_11CpuFeaturesE
_ZN6asmjit9_abi_1_113x8612InstInternal14instIdToStringENS0_4ArchEjRNS0_6StringE
_ZN6asmjit9_abi_1_113x8612InstInternal14stringToInstIdENS0_4ArchEPKcy
_ZN6asmjit9_abi_1_113x8612InstInternal8validateENS0_4ArchERKNS0_8BaseInstEPKNS0_8Operand_EyNS0_15ValidationFlagsE
_ZN6asmjit9_abi_1_113x8612RACFGBuilder11onBeforeRetEPNS0_11FuncRetNodeE
_ZN6asmjit9_abi_1_113x8612RACFGBuilder12moveVecToPtrEPNS0_10InvokeNodeERKNS0_9FuncValueERKNS1_3VecEPNS0_7BaseRegE
_ZN6asmjit9_abi_1_113x8612RACFGBuilder14onBeforeInvokeEPNS0_10InvokeNodeE
_ZN6asmjit9_abi_1_113x8612RACFGBuilder15moveImmToRegArgEPNS0_10InvokeNodeERKNS0_9FuncValueERKNS0_3ImmEPNS0_7BaseRegE
_ZN6asmjit9_abi_1_113x8612RACFGBuilder17moveImmToStackArgEPNS0_10InvokeNodeERKNS0_9FuncValueERKNS0_3ImmE
_ZN6asmjit9_abi_1_113x8612RACFGBuilder17moveRegToStackArgEPNS0_10InvokeNodeERKNS0_9FuncValueERKNS0_7BaseRegE
_ZN6asmjit9_abi_1_113x8612RACFGBuilder5onRetEPNS0_11FuncRetNodeERNS0_13RAInstBuilderE
_ZN6asmjit9_abi_1_113x8612RACFGBuilder6onInstEPNS0_8InstNodeERNS0_15InstControlFlowERNS0_13RAInstBuilderE
_ZN6asmjit9_abi_1_113x8612RACFGBuilder8onInvokeEPNS0_10InvokeNodeERNS0_13RAInstBuilderE
_ZN6asmjit9_abi_1_113x8617FormatterInternal13formatFeatureERNS0_6StringEj
_ZN6asmjit9_abi_1_113x8617FormatterInternal13formatOperandERNS0_6StringENS0_11FormatFlagsEPKNS0_11BaseEmitterENS0_4ArchERKNS0_8Operand_E
_ZN6asmjit9_abi_1_113x8617FormatterInternal14formatRegisterERNS0_6StringENS0_11FormatFlagsEPKNS0_11BaseEmitterENS0_4ArchENS0_7RegTypeEj
_ZN6asmjit9_abi_1_113x8617FormatterInternal17formatInstructionERNS0_6StringENS0_11FormatFlagsEPKNS0_11BaseEmitterENS0_4ArchERKNS0_8BaseInstEPKNS0_8Operand_Ey
_ZN6asmjit9_abi_1_113x8618assignEmitterFuncsEPNS0_11BaseEmitterE
_ZN6asmjit9_abi_1_113x866InstDB12rwInfoIndexAE DATA
_ZN6asmjit9_abi_1_113x866InstDB12rwInfoIndexBE DATA
_ZN6asmjit9_abi_1_113x866InstDB13instNameIndexE DATA
_ZN6asmjit9_abi_1_113x866InstDB14_instInfoTableE DATA
_ZN6asmjit9_abi_1_113x866InstDB15_altOpcodeTableE DATA
_ZN6asmjit9_abi_1_113x866InstDB15_instFlagsTableE DATA
_ZN6asmjit9_abi_1_113x866InstDB16_commonInfoTableE DATA
_ZN6asmjit9_abi_1_113x866InstDB16_mainOpcodeTableE DATA
_ZN6asmjit9_abi_1_113x866InstDB17_opSignatureTableE DATA
_ZN6asmjit9_abi_1_113x866InstDB17_rwFlagsInfoTableE DATA
_ZN6asmjit9_abi_1_113x866InstDB19_instNameIndexTableE DATA
_ZN6asmjit9_abi_1_113x866InstDB19_instSignatureTableE DATA
_ZN6asmjit9_abi_1_113x866InstDB20_additionalInfoTableE DATA
_ZN6asmjit9_abi_1_113x866InstDB20_instNameStringTableE DATA
_ZN6asmjit9_abi_1_113x866InstDB7rwInfoAE DATA
_ZN6asmjit9_abi_1_113x866InstDB7rwInfoBE DATA
_ZN6asmjit9_abi_1_113x866InstDB8rwInfoOpE DATA
_ZN6asmjit9_abi_1_113x866InstDB8rwInfoRmE DATA
_ZN6asmjit9_abi_1_113x867Builder8finalizeEv
_ZN6asmjit9_abi_1_113x867Builder8onAttachEPNS0_10CodeHolderE
_ZN6asmjit9_abi_1_113x867Builder8onDetachEPNS0_10CodeHolderE
_ZN6asmjit9_abi_1_113x867BuilderC1EPNS0_10CodeHolderE
_ZN6asmjit9_abi_1_113x867BuilderC2EPNS0_10CodeHolderE
_ZN6asmjit9_abi_1_113x867BuilderD0Ev
_ZN6asmjit9_abi_1_113x867BuilderD1Ev
_ZN6asmjit9_abi_1_113x867BuilderD2Ev
_ZN6asmjit9_abi_1_113x868Compiler8finalizeEv
_ZN6asmjit9_abi_1_113x868Compiler8onAttachEPNS0_10CodeHolderE
_ZN6asmjit9_abi_1_113x868Compiler8onDetachEPNS0_10CodeHolderE
_ZN6asmjit9_abi_1_113x868CompilerC1EPNS0_10CodeHolderE
_ZN6asmjit9_abi_1_113x868CompilerC2EPNS0_10CodeHolderE
_ZN6asmjit9_abi_1_113x868CompilerD0Ev
_ZN6asmjit9_abi_1_113x868CompilerD1Ev
_ZN6asmjit9_abi_1_113x868CompilerD2Ev
_ZN6asmjit9_abi_1_113x869Assembler5_emitEjRKNS0_8Operand_ES5_S5_PS4_
_ZN6asmjit9_abi_1_113x869Assembler5alignENS0_9AlignModeEj
_ZN6asmjit9_abi_1_113x869Assembler8onAttachEPNS0_10CodeHolderE
_ZN6asmjit9_abi_1_113x869Assembler8onDetachEPNS0_10CodeHolderE
_ZN6asmjit9_abi_1_113x869AssemblerC1EPNS0_10CodeHolderE
_ZN6asmjit9_abi_1_113x869AssemblerC2EPNS0_10CodeHolderE
_ZN6asmjit9_abi_1_113x869AssemblerD0Ev
_ZN6asmjit9_abi_1_113x869AssemblerD1Ev
_ZN6asmjit9_abi_1_113x869AssemblerD2Ev
_ZN6asmjit9_abi_1_113x869X86RAPass11emitPreCallEPNS0_10InvokeNodeE
_ZN6asmjit9_abi_1_113x869X86RAPass6onDoneEv
_ZN6asmjit9_abi_1_113x869X86RAPass6onInitEv
_ZN6asmjit9_abi_1_113x869X86RAPass8_rewriteEPNS0_8BaseNodeES4_
_ZN6asmjit9_abi_1_113x869X86RAPass8buildCFGEv
_ZN6asmjit9_abi_1_113x869X86RAPass8emitJumpERKNS0_5LabelE
_ZN6asmjit9_abi_1_113x869X86RAPass8emitLoadEjj
_ZN6asmjit9_abi_1_113x869X86RAPass8emitMoveEjjj
_ZN6asmjit9_abi_1_113x869X86RAPass8emitSaveEjj
_ZN6asmjit9_abi_1_113x869X86RAPass8emitSwapEjjjj
_ZN6asmjit9_abi_1_113x869X86RAPassC1Ev
_ZN6asmjit9_abi_1_113x869X86RAPassC2Ev
_ZN6asmjit9_abi_1_113x869X86RAPassD0Ev
_ZN6asmjit9_abi_1_113x869X86RAPassD1Ev
_ZN6asmjit9_abi_1_113x869X86RAPassD2Ev
_ZN6asmjit9_abi_1_114Pass3runEPNS0_4ZoneEPNS0_6LoggerE
_ZN6asmjit9_abi_1_114PassC1EPKc
_ZN6asmjit9_abi_1_114PassC2EPKc
_ZN6asmjit9_abi_1_114PassD0Ev
_ZN6asmjit9_abi_1_114PassD1Ev
_ZN6asmjit9_abi_1_114PassD2Ev
_ZN6asmjit9_abi_1_114Zone10_zeroBlockE DATA
_ZN6asmjit9_abi_1_114Zone11allocZeroedEyy
_ZN6asmjit9_abi_1_114Zone3dupEPKvyb
_ZN6asmjit9_abi_1_114Zone5_initEyyPKNS0_7Support9TemporaryE
_ZN6asmjit9_abi_1_114Zone5resetENS0_11ResetPolicyE
_ZN6asmjit9_abi_1_114Zone6_allocEyy
_ZN6asmjit9_abi_1_114Zone7sformatEPKcz
_ZN6asmjit9_abi_1_116Logger4_logEPKcy
_ZN6asmjit9_abi_1_116Logger4logfEPKcz
_ZN6asmjit9_abi_1_116Logger4logvEPKcPc
_ZN6asmjit9_abi_1_116LoggerC1Ev
_ZN6asmjit9_abi_1_116LoggerC2Ev
_ZN6asmjit9_abi_1_116LoggerD0Ev
_ZN6asmjit9_abi_1_116LoggerD1Ev
_ZN6asmjit9_abi_1_116LoggerD2Ev
_ZN6asmjit9_abi_1_116String10_opVFormatENS1_8ModifyOpEPKcPc
_ZN6asmjit9_abi_1_116String5clearEv
_ZN6asmjit9_abi_1_116String5resetEv
_ZN6asmjit9_abi_1_116String6_opHexENS1_8ModifyOpEPKvyc
_ZN6asmjit9_abi_1_116String6assignEPKcy
_ZN6asmjit9_abi_1_116String6padEndEyc
_ZN6asmjit9_abi_1_116String7_opCharENS1_8ModifyOpEc
_ZN6asmjit9_abi_1_116String7prepareENS1_8ModifyOpEy
_ZN6asmjit9_abi_1_116String8_opCharsENS1_8ModifyOpEcy
_ZN6asmjit9_abi_1_116String8truncateEy
_ZN6asmjit9_abi_1_116String9_opFormatENS1_8ModifyOpEPKcz
_ZN6asmjit9_abi_1_116String9_opNumberENS1_8ModifyOpEyjyNS0_17StringFormatFlagsE
_ZN6asmjit9_abi_1_116String9_opStringENS1_8ModifyOpEPKcy
_ZN6asmjit9_abi_1_116TargetC1Ev
_ZN6asmjit9_abi_1_116TargetC2Ev
_ZN6asmjit9_abi_1_116TargetD0Ev
_ZN6asmjit9_abi_1_116TargetD1Ev
_ZN6asmjit9_abi_1_116TargetD2Ev
_ZN6asmjit9_abi_1_117BaseMem9addOffsetEx
_ZN6asmjit9_abi_1_117CpuInfo4hostEv
_ZN6asmjit9_abi_1_117InstAPI11queryRWInfoENS0_4ArchERKNS0_8BaseInstEPKNS0_8Operand_EyPNS0_10InstRWInfoE
_ZN6asmjit9_abi_1_117InstAPI13queryFeaturesENS0_4ArchERKNS0_8BaseInstEPKNS0_8Operand_EyPNS0_11CpuFeaturesE
_ZN6asmjit9_abi_1_117InstAPI14instIdToStringENS0_4ArchEjRNS0_6StringE
_ZN6asmjit9_abi_1_117InstAPI14stringToInstIdENS0_4ArchEPKcy
_ZN6asmjit9_abi_1_117InstAPI8validateENS0_4ArchERKNS0_8BaseInstEPKNS0_8Operand_EyNS0_15ValidationFlagsE
_ZN6asmjit9_abi_1_117OSUtils12getTickCountEv
_ZN6asmjit9_abi_1_117RABlock15appendSuccessorEPS1_
_ZN6asmjit9_abi_1_117RABlock16prependSuccessorEPS1_
_ZN6asmjit9_abi_1_117VirtMem13largePageSizeEv
_ZN6asmjit9_abi_1_117VirtMem16allocDualMappingEPNS1_11DualMappingEyNS1_11MemoryFlagsE
_ZN6asmjit9_abi_1_117VirtMem16protectJitMemoryENS1_16ProtectJitAccessE
_ZN6asmjit9_abi_1_117VirtMem18releaseDualMappingEPNS1_11DualMappingEy
_ZN6asmjit9_abi_1_117VirtMem19hardenedRuntimeInfoEv
_ZN6asmjit9_abi_1_117VirtMem21flushInstructionCacheEPvy
_ZN6asmjit9_abi_1_117VirtMem4infoEv
_ZN6asmjit9_abi_1_117VirtMem5allocEPPvyNS1_11MemoryFlagsE
_ZN6asmjit9_abi_1_117VirtMem7protectEPvyNS1_11MemoryFlagsE
_ZN6asmjit9_abi_1_117VirtMem7releaseEPvy
_ZN6asmjit9_abi_1_117commentEPKcy
_ZN6asmjit9_abi_1_118CallConv4initENS0_10CallConvIdERKNS0_11EnvironmentE
_ZN6asmjit9_abi_1_118FuncPass13runOnFunctionEPNS0_4ZoneEPNS0_6LoggerEPNS0_8FuncNodeE
_ZN6asmjit9_abi_1_118FuncPass3runEPNS0_4ZoneEPNS0_6LoggerE
_ZN6asmjit9_abi_1_118FuncPassC1EPKc
_ZN6asmjit9_abi_1_118FuncPassC2EPKc
_ZN6asmjit9_abi_1_118ZoneTreeINS0_9ConstPool4NodeEE6insertINS2_7CompareEEEvPS3_RKT_
_ZN6asmjit9_abi_1_119ArchUtils20typeIdToRegSignatureENS0_4ArchENS0_6TypeIdEPS3_PNS0_16OperandSignatureE
_ZN6asmjit9_abi_1_119ConstPool3addEPKvyRy
_ZN6asmjit9_abi_1_119ConstPool5resetEPNS0_4ZoneE
_ZN6asmjit9_abi_1_119ConstPoolC1EPNS0_4ZoneE
_ZN6asmjit9_abi_1_119ConstPoolC2EPNS0_4ZoneE
_ZN6asmjit9_abi_1_119ConstPoolD1Ev
_ZN6asmjit9_abi_1_119ConstPoolD2Ev
_ZN6asmjit9_abi_1_119Formatter10formatDataERNS0_6StringENS0_11FormatFlagsENS0_4ArchENS0_6TypeIdEPKvyy
_ZN6asmjit9_abi_1_119Formatter10formatNodeERNS0_6StringERKNS0_13FormatOptionsEPKNS0_11BaseBuilderEPKNS0_8BaseNodeE
_ZN6asmjit9_abi_1_119Formatter11formatLabelERNS0_6StringENS0_11FormatFlagsEPKNS0_11BaseEmitterEj
_ZN6asmjit9_abi_1_119Formatter12formatTypeIdERNS0_6StringENS0_6TypeIdE
_ZN6asmjit9_abi_1_119Formatter13formatFeatureERNS0_6StringENS0_4ArchEj
_ZN6asmjit9_abi_1_119Formatter13formatOperandERNS0_6StringENS0_11FormatFlagsEPKNS0_11BaseEmitterENS0_4ArchERKNS0_8Operand_E
_ZN6asmjit9_abi_1_119Formatter14formatDataTypeERNS0_6StringENS0_11FormatFlagsENS0_4ArchENS0_6TypeIdE
_ZN6asmjit9_abi_1_119Formatter14formatNodeListERNS0_6StringERKNS0_13FormatOptionsEPKNS0_11BaseBuilderE
_ZN6asmjit9_abi_1_119Formatter14formatNodeListERNS0_6StringERKNS0_13FormatOptionsEPKNS0_11BaseBuilderEPKNS0_8BaseNodeESC_
_ZN6asmjit9_abi_1_119Formatter14formatRegisterERNS0_6StringENS0_11FormatFlagsEPKNS0_11BaseEmitterENS0_4ArchENS0_7RegTypeEj
_ZN6asmjit9_abi_1_119Formatter17formatInstructionERNS0_6StringENS0_11FormatFlagsEPKNS0_11BaseEmitterENS0_4ArchERKNS0_8BaseInstEPKNS0_8Operand_Ey
_ZN6asmjit9_abi_1_119FuncFrame4initERKNS0_10FuncDetailE
_ZN6asmjit9_abi_1_119FuncFrame8finalizeEv
_ZN6asmjit9_abi_1_119FuncValue13assignRegDataENS0_7RegTypeEj
_ZN6asmjit9_abi_1_119TypeUtils9_typeDataE DATA
_ZNK6asmjit9_abi_1_1110BaseRAPass18_strictlyDominatesEPKNS0_7RABlockES4_
_ZNK6asmjit9_abi_1_1110BaseRAPass23_nearestCommonDominatorEPKNS0_7RABlockES4_
_ZNK6asmjit9_abi_1_1110CodeHolder13sectionByNameEPKcy
_ZNK6asmjit9_abi_1_1110CodeHolder8codeSizeEv
_ZNK6asmjit9_abi_1_1111BaseBuilder10passByNameEPKc
_ZNK6asmjit9_abi_1_1111BaseEmitter12isLabelValidEj
_ZNK6asmjit9_abi_1_1111Environment14stackAlignmentEv
_ZNK6asmjit9_abi_1_1112JitAllocator10statisticsEv
_ZNK6asmjit9_abi_1_1112JitAllocator5queryERNS1_4SpanEPv
_ZNK6asmjit9_abi_1_1116RALocalAllocator16decideOnSpillForENS0_8RegGroupEjjPj
_ZNK6asmjit9_abi_1_1116RALocalAllocator18decideOnAssignmentENS0_8RegGroupEjjj
_ZNK6asmjit9_abi_1_1116RALocalAllocator20decideOnReassignmentENS0_8RegGroupEjjj
_ZNK6asmjit9_abi_1_1118FuncArgsAssignment15updateFuncFrameERNS0_9FuncFrameE
_ZNK6asmjit9_abi_1_116String2eqEPKcy
_ZNK6asmjit9_abi_1_119ConstPool4Tree7forEachINS0_13ConstPoolFillEEEvRT_
_ZNK6asmjit9_abi_1_119ConstPool4fillEPv
_ZTIN6asmjit9_abi_1_1110BaseRAPassE DATA
_ZTIN6asmjit9_abi_1_1110FileLoggerE DATA
_ZTIN6asmjit9_abi_1_1110JitRuntimeE DATA
_ZTIN6asmjit9_abi_1_1111BaseBuilderE DATA
_ZTIN6asmjit9_abi_1_1111BaseEmitterE DATA
_ZTIN6asmjit9_abi_1_1112BaseCompilerE DATA
_ZTIN6asmjit9_abi_1_1112ErrorHandlerE DATA
_ZTIN6asmjit9_abi_1_1112StringLoggerE DATA
_ZTIN6asmjit9_abi_1_1113BaseAssemblerE DATA
_ZTIN6asmjit9_abi_1_1114BaseEmitHelperE DATA
_ZTIN6asmjit9_abi_1_1119GlobalConstPoolPassE DATA
_ZTIN6asmjit9_abi_1_1121PostponedErrorHandlerE DATA
_ZTIN6asmjit9_abi_1_113x8610EmitHelperE DATA
_ZTIN6asmjit9_abi_1_113x8616EmitterExplicitTINS1_7BuilderEEE DATA
_ZTIN6asmjit9_abi_1_113x8616EmitterExplicitTINS1_8CompilerEEE DATA
_ZTIN6asmjit9_abi_1_113x8616EmitterExplicitTINS1_9AssemblerEEE DATA
_ZTIN6asmjit9_abi_1_113x8616EmitterImplicitTINS1_7BuilderEEE DATA
_ZTIN6asmjit9_abi_1_113x8616EmitterImplicitTINS1_9AssemblerEEE DATA
_ZTIN6asmjit9_abi_1_113x867BuilderE DATA
_ZTIN6asmjit9_abi_1_113x868CompilerE DATA
_ZTIN6asmjit9_abi_1_113x869AssemblerE DATA
_ZTIN6asmjit9_abi_1_113x869X86RAPassE DATA
_ZTIN6asmjit9_abi_1_114PassE DATA
_ZTIN6asmjit9_abi_1_116LoggerE DATA
_ZTIN6asmjit9_abi_1_116TargetE DATA
_ZTIN6asmjit9_abi_1_118FuncPassE DATA
_ZTSN6asmjit9_abi_1_1110BaseRAPassE DATA
_ZTSN6asmjit9_abi_1_1110FileLoggerE DATA
_ZTSN6asmjit9_abi_1_1110JitRuntimeE DATA
_ZTSN6asmjit9_abi_1_1111BaseBuilderE DATA
_ZTSN6asmjit9_abi_1_1111BaseEmitterE DATA
_ZTSN6asmjit9_abi_1_1112BaseCompilerE DATA
_ZTSN6asmjit9_abi_1_1112ErrorHandlerE DATA
_ZTSN6asmjit9_abi_1_1112StringLoggerE DATA
_ZTSN6asmjit9_abi_1_1113BaseAssemblerE DATA
_ZTSN6asmjit9_abi_1_1114BaseEmitHelperE DATA
_ZTSN6asmjit9_abi_1_1119GlobalConstPoolPassE DATA
_ZTSN6asmjit9_abi_1_1121PostponedErrorHandlerE DATA
_ZTSN6asmjit9_abi_1_113x8610EmitHelperE DATA
_ZTSN6asmjit9_abi_1_113x8616EmitterExplicitTINS1_7BuilderEEE DATA
_ZTSN6asmjit9_abi_1_113x8616EmitterExplicitTINS1_8CompilerEEE DATA
_ZTSN6asmjit9_abi_1_113x8616EmitterExplicitTINS1_9AssemblerEEE DATA
_ZTSN6asmjit9_abi_1_113x8616EmitterImplicitTINS1_7BuilderEEE DATA
_ZTSN6asmjit9_abi_1_113x8616EmitterImplicitTINS1_9AssemblerEEE DATA
_ZTSN6asmjit9_abi_1_113x867BuilderE DATA
_ZTSN6asmjit9_abi_1_113x868CompilerE DATA
_ZTSN6asmjit9_abi_1_113x869AssemblerE DATA
_ZTSN6asmjit9_abi_1_113x869X86RAPassE DATA
_ZTSN6asmjit9_abi_1_114PassE DATA
_ZTSN6asmjit9_abi_1_116LoggerE DATA
_ZTSN6asmjit9_abi_1_116TargetE DATA
_ZTSN6asmjit9_abi_1_118FuncPassE DATA
_ZTVN6asmjit9_abi_1_1110BaseRAPassE DATA
_ZTVN6asmjit9_abi_1_1110FileLoggerE DATA
_ZTVN6asmjit9_abi_1_1110JitRuntimeE DATA
_ZTVN6asmjit9_abi_1_1111BaseBuilderE DATA
_ZTVN6asmjit9_abi_1_1111BaseEmitterE DATA
_ZTVN6asmjit9_abi_1_1112BaseCompilerE DATA
_ZTVN6asmjit9_abi_1_1112ErrorHandlerE DATA
_ZTVN6asmjit9_abi_1_1112StringLoggerE DATA
_ZTVN6asmjit9_abi_1_1113BaseAssemblerE DATA
_ZTVN6asmjit9_abi_1_1119GlobalConstPoolPassE DATA
_ZTVN6asmjit9_abi_1_1121PostponedErrorHandlerE DATA
_ZTVN6asmjit9_abi_1_113x8610EmitHelperE DATA
_ZTVN6asmjit9_abi_1_113x867BuilderE DATA
_ZTVN6asmjit9_abi_1_113x868CompilerE DATA
_ZTVN6asmjit9_abi_1_113x869AssemblerE DATA
_ZTVN6asmjit9_abi_1_113x869X86RAPassE DATA
_ZTVN6asmjit9_abi_1_114PassE DATA
_ZTVN6asmjit9_abi_1_116LoggerE DATA
_ZTVN6asmjit9_abi_1_116TargetE DATA
_ZTVN6asmjit9_abi_1_118FuncPassE DATA
_ZZN6asmjit9_abi_1_113x866Opcode14addArithBySizeIjEERS2_T_E4mask DATA
_ZZN6asmjit9_abi_1_113x866Opcode15addPrefixBySizeIhEERS2_T_E4mask DATA
_ZZN6asmjit9_abi_1_113x866Opcode15addPrefixBySizeIjEERS2_T_E4mask DATA
